; Function Attrs: mustprogress uwtable
define void @_ZN6icu_7517CollationSettings16setReorderArraysEPKiiPKjiPKhR10UErrorCode(ptr nocapture noundef nonnull align 8 dereferenceable(852) %this, ptr nocapture noundef readonly %codes, i32 noundef %codesLength, ptr nocapture noundef readonly %ranges, i32 noundef %rangesLength, ptr nocapture noundef readonly %table, ptr nocapture noundef nonnull align 4 dereferenceable(4) %errorCode) local_unnamed_addr #0 align 2 {
entry:
  %0 = load i32, ptr %errorCode, align 4
  %cmp.i = icmp slt i32 %0, 1
  br i1 %cmp.i, label %if.end, label %return

if.end:                                           ; preds = %entry
  %add = add nsw i32 %rangesLength, %codesLength
  %reorderCodesCapacity = getelementptr inbounds i8, ptr %this, i64 76
  %1 = load i32, ptr %reorderCodesCapacity, align 4
  %cmp.not = icmp sgt i32 %add, %1
  br i1 %cmp.not, label %if.else, label %if.then2

if.then2:                                         ; preds = %if.end
  %reorderCodes = getelementptr inbounds i8, ptr %this, i64 64
  %2 = load ptr, ptr %reorderCodes, align 8
  br label %do.body

if.else:                                          ; preds = %if.end
  %add3 = add nsw i32 %add, 3
  %and = and i32 %add3, -4
  %mul = shl nsw i32 %and, 2
  %add4 = add nsw i32 %mul, 256
  %conv = sext i32 %add4 to i64
  %call5 = tail call noalias ptr @uprv_malloc_75(i64 noundef %conv) #14
  %cmp6 = icmp eq ptr %call5, null
  br i1 %cmp6, label %if.then7, label %if.end8

if.then7:                                         ; preds = %if.else
  %reorderTable.i = getelementptr inbounds i8, ptr %this, i64 32
  store ptr null, ptr %reorderTable.i, align 8
  %minHighNoReorder.i = getelementptr inbounds i8, ptr %this, i64 40
  store i32 0, ptr %minHighNoReorder.i, align 8
  %reorderRangesLength.i = getelementptr inbounds i8, ptr %this, i64 56
  store i32 0, ptr %reorderRangesLength.i, align 8
  %reorderCodesLength.i = getelementptr inbounds i8, ptr %this, i64 72
  store i32 0, ptr %reorderCodesLength.i, align 8
  store i32 7, ptr %errorCode, align 4
  br label %return

if.end8:                                          ; preds = %if.else
  %3 = load i32, ptr %reorderCodesCapacity, align 4
  %cmp10.not = icmp eq i32 %3, 0
  br i1 %cmp10.not, label %if.end13, label %if.then11

if.then11:                                        ; preds = %if.end8
  %reorderCodes12 = getelementptr inbounds i8, ptr %this, i64 64
  %4 = load ptr, ptr %reorderCodes12, align 8
  tail call void @uprv_free_75(ptr noundef %4)
  br label %if.end13

if.end13:                                         ; preds = %if.then11, %if.end8
  %reorderCodes14 = getelementptr inbounds i8, ptr %this, i64 64
  store ptr %call5, ptr %reorderCodes14, align 8
  store i32 %and, ptr %reorderCodesCapacity, align 4
  br label %do.body

do.body:                                          ; preds = %if.then2, %if.end13
  %5 = phi i32 [ %1, %if.then2 ], [ %and, %if.end13 ]
  %ownedCodes.0 = phi ptr [ %2, %if.then2 ], [ %call5, %if.end13 ]
  %idx.ext = sext i32 %5 to i64
  %add.ptr = getelementptr inbounds i32, ptr %ownedCodes.0, i64 %idx.ext
  tail call void @llvm.memcpy.p0.p0.i64(ptr noundef nonnull align 4 dereferenceable(256) %add.ptr, ptr noundef nonnull align 1 dereferenceable(256) %table, i64 256, i1 false)
  %mul19 = shl nsw i32 %codesLength, 2
  %conv20 = sext i32 %mul19 to i64
  tail call void @llvm.memcpy.p0.p0.i64(ptr align 4 %ownedCodes.0, ptr align 4 %codes, i64 %conv20, i1 false)
  %idx.ext23 = sext i32 %codesLength to i64
  %add.ptr24 = getelementptr inbounds i32, ptr %ownedCodes.0, i64 %idx.ext23
  %mul25 = shl nsw i32 %rangesLength, 2
  %conv26 = sext i32 %mul25 to i64
  tail call void @llvm.memcpy.p0.p0.i64(ptr align 4 %add.ptr24, ptr align 4 %ranges, i64 %conv26, i1 false)
  %reorderCodes28 = getelementptr inbounds i8, ptr %this, i64 64
  %6 = load ptr, ptr %reorderCodes28, align 8
  %7 = load i32, ptr %reorderCodesCapacity, align 4
  %idx.ext30 = sext i32 %7 to i64
  %add.ptr31 = getelementptr inbounds i32, ptr %6, i64 %idx.ext30
  %reorderTable = getelementptr inbounds i8, ptr %this, i64 32
  store ptr %add.ptr31, ptr %reorderTable, align 8
  %reorderCodesLength = getelementptr inbounds i8, ptr %this, i64 72
  store i32 %codesLength, ptr %reorderCodesLength, align 8
  %reorderRanges = getelementptr inbounds i8, ptr %this, i64 48
  store ptr %add.ptr24, ptr %reorderRanges, align 8
  %reorderRangesLength = getelementptr inbounds i8, ptr %this, i64 56
  store i32 %rangesLength, ptr %reorderRangesLength, align 8
  br label %return

return:                                           ; preds = %entry, %do.body, %if.then7
  ret void
}